target datalayout = "e-m:e-p270:32:32-p271:32:32-p272:64:64-i64:64-i128:128-f80:128-n8:16:32:64-S128"
target triple = "x86_64-pc-linux-gnu"

%struct.H5PB_t = type { i64, i64, i32, i32, i32, i32, i32, i32, ptr, ptr, i64, ptr, ptr, ptr, [2 x i32], [2 x i32], [2 x i32], [2 x i32], [2 x i32] }

@H5PB_init_g = global i8 0, align 1
@H5_libterm_g = external global i8, align 1

; Function Attrs: nounwind uwtable
define i32 @H5PB_reset_stats(ptr noundef %0) #0 {
  %2 = alloca ptr, align 8
  store ptr %0, ptr %2, align 8, !tbaa !3
  %3 = load i8, ptr @H5PB_init_g, align 1, !tbaa !8, !range !10, !noundef !11
  %4 = trunc i8 %3 to i1
  br i1 %4, label %9, label %5

5:                                                ; preds = %1
  %6 = load i8, ptr @H5_libterm_g, align 1, !tbaa !8, !range !10, !noundef !11
  %7 = trunc i8 %6 to i1
  %8 = xor i1 %7, true
  br label %9

9:                                                ; preds = %5, %1
  %10 = phi i1 [ false, %1 ], [ %8, %5 ]
  %11 = xor i1 %10, true
  %12 = xor i1 %11, true
  %13 = zext i1 %12 to i32
  %14 = sext i32 %13 to i64
  %15 = call i64 @llvm.expect.i64(i64 %14, i64 0)
  %16 = icmp ne i64 %15, 0
  br i1 %16, label %17, label %18

17:                                               ; preds = %9
  store i8 1, ptr @H5PB_init_g, align 1, !tbaa !8
  br label %18

18:                                               ; preds = %17, %9
  %19 = load i8, ptr @H5PB_init_g, align 1, !tbaa !8, !range !10, !noundef !11
  %20 = trunc i8 %19 to i1
  br i1 %20, label %25, label %21

21:                                               ; preds = %18
  %22 = load i8, ptr @H5_libterm_g, align 1, !tbaa !8, !range !10, !noundef !11
  %23 = trunc i8 %22 to i1
  %24 = xor i1 %23, true
  br label %25

25:                                               ; preds = %21, %18
  %26 = phi i1 [ true, %18 ], [ %24, %21 ]
  %27 = xor i1 %26, true
  %28 = xor i1 %27, true
  %29 = zext i1 %28 to i32
  %30 = sext i32 %29 to i64
  %31 = call i64 @llvm.expect.i64(i64 %30, i64 1)
  %32 = icmp ne i64 %31, 0
  br i1 %32, label %33, label %64

33:                                               ; preds = %25
  %34 = load ptr, ptr %2, align 8, !tbaa !3
  %35 = getelementptr inbounds nuw %struct.H5PB_t, ptr %34, i32 0, i32 14
  %36 = getelementptr inbounds [2 x i32], ptr %35, i64 0, i64 0
  store i32 0, ptr %36, align 8, !tbaa !12
  %37 = load ptr, ptr %2, align 8, !tbaa !3
  %38 = getelementptr inbounds nuw %struct.H5PB_t, ptr %37, i32 0, i32 14
  %39 = getelementptr inbounds [2 x i32], ptr %38, i64 0, i64 1
  store i32 0, ptr %39, align 4, !tbaa !12
  %40 = load ptr, ptr %2, align 8, !tbaa !3
  %41 = getelementptr inbounds nuw %struct.H5PB_t, ptr %40, i32 0, i32 15
  %42 = getelementptr inbounds [2 x i32], ptr %41, i64 0, i64 0
  store i32 0, ptr %42, align 8, !tbaa !12
  %43 = load ptr, ptr %2, align 8, !tbaa !3
  %44 = getelementptr inbounds nuw %struct.H5PB_t, ptr %43, i32 0, i32 15
  %45 = getelementptr inbounds [2 x i32], ptr %44, i64 0, i64 1
  store i32 0, ptr %45, align 4, !tbaa !12
  %46 = load ptr, ptr %2, align 8, !tbaa !3
  %47 = getelementptr inbounds nuw %struct.H5PB_t, ptr %46, i32 0, i32 16
  %48 = getelementptr inbounds [2 x i32], ptr %47, i64 0, i64 0
  store i32 0, ptr %48, align 8, !tbaa !12
  %49 = load ptr, ptr %2, align 8, !tbaa !3
  %50 = getelementptr inbounds nuw %struct.H5PB_t, ptr %49, i32 0, i32 16
  %51 = getelementptr inbounds [2 x i32], ptr %50, i64 0, i64 1
  store i32 0, ptr %51, align 4, !tbaa !12
  %52 = load ptr, ptr %2, align 8, !tbaa !3
  %53 = getelementptr inbounds nuw %struct.H5PB_t, ptr %52, i32 0, i32 17
  %54 = getelementptr inbounds [2 x i32], ptr %53, i64 0, i64 0
  store i32 0, ptr %54, align 8, !tbaa !12
  %55 = load ptr, ptr %2, align 8, !tbaa !3
  %56 = getelementptr inbounds nuw %struct.H5PB_t, ptr %55, i32 0, i32 17
  %57 = getelementptr inbounds [2 x i32], ptr %56, i64 0, i64 1
  store i32 0, ptr %57, align 4, !tbaa !12
  %58 = load ptr, ptr %2, align 8, !tbaa !3
  %59 = getelementptr inbounds nuw %struct.H5PB_t, ptr %58, i32 0, i32 18
  %60 = getelementptr inbounds [2 x i32], ptr %59, i64 0, i64 0
  store i32 0, ptr %60, align 8, !tbaa !12
  %61 = load ptr, ptr %2, align 8, !tbaa !3
  %62 = getelementptr inbounds nuw %struct.H5PB_t, ptr %61, i32 0, i32 18
  %63 = getelementptr inbounds [2 x i32], ptr %62, i64 0, i64 1
  store i32 0, ptr %63, align 4, !tbaa !12
  br label %64

64:                                               ; preds = %33, %25
  ret i32 0
}